; Function Attrs: nounwind uwtable
define dso_local ptr @ic_strdup(ptr noundef readonly %0) local_unnamed_addr #0 {
  %2 = icmp eq ptr %0, null
  br i1 %2, label %ic_get_env.exit.thread, label %3

3:                                                ; preds = %1
  %4 = load ptr, ptr @rpenv, align 8, !tbaa !108
  %5 = icmp eq ptr %4, null
  br i1 %5, label %6, label %ic_strlen.exit

6:                                                ; preds = %3
  %7 = tail call fastcc ptr @ic_env_create(ptr noundef null, ptr noundef null, ptr noundef null)
  store ptr %7, ptr @rpenv, align 8, !tbaa !108
  %.not.i = icmp eq ptr %7, null
  br i1 %.not.i, label %ic_get_env.exit.thread, label %ic_get_env.exit

ic_get_env.exit:                                  ; preds = %6
  %8 = tail call i32 @atexit(ptr noundef nonnull @ic_atexit) #32
  %.pre.i = load ptr, ptr @rpenv, align 8, !tbaa !108
  %9 = icmp eq ptr %.pre.i, null
  br i1 %9, label %ic_get_env.exit.thread, label %ic_strlen.exit

ic_strlen.exit:                                   ; preds = %3, %ic_get_env.exit
  %10 = phi ptr [ %.pre.i, %ic_get_env.exit ], [ %4, %3 ]
  %11 = tail call i64 @strlen(ptr noundef nonnull readonly dereferenceable(1) %0) #33
  %12 = tail call noundef range(i64 0, -9223372036854775808) i64 @llvm.smax.i64(i64 %11, i64 0)
  %13 = load ptr, ptr %10, align 8, !tbaa !78
  %14 = add nuw nsw i64 %12, 1
  %.val = load ptr, ptr %13, align 8, !tbaa !30
  %15 = tail call ptr %.val(i64 noundef %14) #32
  %16 = icmp eq ptr %15, null
  br i1 %16, label %ic_get_env.exit.thread, label %17

17:                                               ; preds = %ic_strlen.exit
  %18 = icmp slt i64 %11, 1
  br i1 %18, label %ic_memcpy.exit, label %19

19:                                               ; preds = %17
  tail call void @llvm.memcpy.p0.p0.i64(ptr nonnull align 1 %15, ptr nonnull readonly align 1 %0, i64 %12, i1 false)
  br label %ic_memcpy.exit

ic_memcpy.exit:                                   ; preds = %17, %19
  %20 = getelementptr inbounds nuw i8, ptr %15, i64 %12
  store i8 0, ptr %20, align 1, !tbaa !4
  br label %ic_get_env.exit.thread

ic_get_env.exit.thread:                           ; preds = %6, %ic_get_env.exit, %ic_strlen.exit, %ic_memcpy.exit, %1
  %.0 = phi ptr [ null, %1 ], [ null, %ic_get_env.exit ], [ %15, %ic_memcpy.exit ], [ null, %ic_strlen.exit ], [ null, %6 ]
  ret ptr %.0
}